target datalayout = "e-m:e-p270:32:32-p271:32:32-p272:64:64-i64:64-i128:128-f80:128-n8:16:32:64-S128"
target triple = "x86_64-pc-linux-gnu"

%struct.ForEachState = type { ptr, i32 }
%struct.EState = type { i32, i32, ptr, ptr, ptr, i32, ptr, ptr, ptr, ptr, ptr, ptr, ptr, ptr, ptr, ptr, i32, ptr, ptr, ptr, ptr, ptr, ptr, ptr, ptr, ptr, ptr, i64, i64, i32, i32, i8, ptr, ptr, ptr, ptr, ptr, i8, i32, i32, ptr, i32, ptr, ptr, ptr, ptr }
%struct.List = type { i32, i32, i32, ptr, [0 x %union.ListCell] }
%union.ListCell = type { ptr }

@CurrentMemoryContext = external global ptr, align 8

; Function Attrs: nounwind uwtable
define dso_local ptr @ExecPrepareExpr(ptr noundef %0, ptr noundef %1) #0 {
  %3 = alloca ptr, align 8
  %4 = alloca ptr, align 8
  %5 = alloca ptr, align 8
  %6 = alloca ptr, align 8
  store ptr %0, ptr %3, align 8
  store ptr %1, ptr %4, align 8
  call void @llvm.lifetime.start.p0(i64 8, ptr %5) #8
  call void @llvm.lifetime.start.p0(i64 8, ptr %6) #8
  %7 = load ptr, ptr %4, align 8
  %8 = getelementptr inbounds nuw %struct.EState, ptr %7, i32 0, i32 25
  %9 = load ptr, ptr %8, align 8
  %10 = call ptr @MemoryContextSwitchTo(ptr noundef %9)
  store ptr %10, ptr %6, align 8
  %11 = load ptr, ptr %3, align 8
  %12 = call ptr @expression_planner(ptr noundef %11)
  store ptr %12, ptr %3, align 8
  %13 = load ptr, ptr %3, align 8
  %14 = call ptr @ExecInitExpr(ptr noundef %13, ptr noundef null)
  store ptr %14, ptr %5, align 8
  %15 = load ptr, ptr %6, align 8
  %16 = call ptr @MemoryContextSwitchTo(ptr noundef %15)
  %17 = load ptr, ptr %5, align 8
  call void @llvm.lifetime.end.p0(i64 8, ptr %6) #8
  call void @llvm.lifetime.end.p0(i64 8, ptr %5) #8
  ret ptr %17
}

; Function Attrs: inlinehint nounwind uwtable
define internal ptr @MemoryContextSwitchTo(ptr noundef %0) #3 {
  %2 = alloca ptr, align 8
  %3 = alloca ptr, align 8
  store ptr %0, ptr %2, align 8
  call void @llvm.lifetime.start.p0(i64 8, ptr %3) #8
  %4 = load ptr, ptr @CurrentMemoryContext, align 8
  store ptr %4, ptr %3, align 8
  %5 = load ptr, ptr %2, align 8
  store ptr %5, ptr @CurrentMemoryContext, align 8
  %6 = load ptr, ptr %3, align 8
  call void @llvm.lifetime.end.p0(i64 8, ptr %3) #8
  ret ptr %6
}

; Function Attrs: nounwind uwtable
define dso_local ptr @ExecPrepareExprList(ptr noundef %0, ptr noundef %1) #0 {
  %3 = alloca ptr, align 8
  %4 = alloca ptr, align 8
  %5 = alloca ptr, align 8
  %6 = alloca ptr, align 8
  %7 = alloca ptr, align 8
  %8 = alloca %struct.ForEachState, align 8
  %9 = alloca ptr, align 8
  store ptr %0, ptr %3, align 8
  store ptr %1, ptr %4, align 8
  call void @llvm.lifetime.start.p0(i64 8, ptr %5) #8
  store ptr null, ptr %5, align 8
  call void @llvm.lifetime.start.p0(i64 8, ptr %6) #8
  call void @llvm.lifetime.start.p0(i64 8, ptr %7) #8
  %10 = load ptr, ptr %4, align 8
  %11 = getelementptr inbounds nuw %struct.EState, ptr %10, i32 0, i32 25
  %12 = load ptr, ptr %11, align 8
  %13 = call ptr @MemoryContextSwitchTo(ptr noundef %12)
  store ptr %13, ptr %6, align 8
  call void @llvm.lifetime.start.p0(i64 16, ptr %8) #8
  %14 = getelementptr inbounds nuw %struct.ForEachState, ptr %8, i32 0, i32 0
  %15 = load ptr, ptr %3, align 8
  store ptr %15, ptr %14, align 8
  %16 = getelementptr inbounds nuw %struct.ForEachState, ptr %8, i32 0, i32 1
  store i32 0, ptr %16, align 8
  %17 = getelementptr i8, ptr %8, i64 12
  call void @llvm.memset.p0.i64(ptr align 4 %17, i8 0, i64 4, i1 false)
  br label %18

18:                                               ; preds = %52, %2
  %19 = getelementptr inbounds nuw %struct.ForEachState, ptr %8, i32 0, i32 0
  %20 = load ptr, ptr %19, align 8
  %21 = icmp ne ptr %20, null
  br i1 %21, label %22, label %39

22:                                               ; preds = %18
  %23 = getelementptr inbounds nuw %struct.ForEachState, ptr %8, i32 0, i32 1
  %24 = load i32, ptr %23, align 8
  %25 = getelementptr inbounds nuw %struct.ForEachState, ptr %8, i32 0, i32 0
  %26 = load ptr, ptr %25, align 8
  %27 = getelementptr inbounds nuw %struct.List, ptr %26, i32 0, i32 1
  %28 = load i32, ptr %27, align 4
  %29 = icmp slt i32 %24, %28
  br i1 %29, label %30, label %39

30:                                               ; preds = %22
  %31 = getelementptr inbounds nuw %struct.ForEachState, ptr %8, i32 0, i32 0
  %32 = load ptr, ptr %31, align 8
  %33 = getelementptr inbounds nuw %struct.List, ptr %32, i32 0, i32 3
  %34 = load ptr, ptr %33, align 8
  %35 = getelementptr inbounds nuw %struct.ForEachState, ptr %8, i32 0, i32 1
  %36 = load i32, ptr %35, align 8
  %37 = sext i32 %36 to i64
  %38 = getelementptr inbounds %union.ListCell, ptr %34, i64 %37
  store ptr %38, ptr %7, align 8
  br label %40

39:                                               ; preds = %22, %18
  store ptr null, ptr %7, align 8
  br label %40

40:                                               ; preds = %39, %30
  %41 = phi i32 [ 1, %30 ], [ 0, %39 ]
  %42 = icmp ne i32 %41, 0
  br i1 %42, label %44, label %43

43:                                               ; preds = %40
  call void @llvm.lifetime.end.p0(i64 16, ptr %8) #8
  br label %56

44:                                               ; preds = %40
  call void @llvm.lifetime.start.p0(i64 8, ptr %9) #8
  %45 = load ptr, ptr %7, align 8
  %46 = load ptr, ptr %45, align 8
  store ptr %46, ptr %9, align 8
  %47 = load ptr, ptr %5, align 8
  %48 = load ptr, ptr %9, align 8
  %49 = load ptr, ptr %4, align 8
  %50 = call ptr @ExecPrepareExpr(ptr noundef %48, ptr noundef %49)
  %51 = call ptr @lappend(ptr noundef %47, ptr noundef %50)
  store ptr %51, ptr %5, align 8
  call void @llvm.lifetime.end.p0(i64 8, ptr %9) #8
  br label %52

52:                                               ; preds = %44
  %53 = getelementptr inbounds nuw %struct.ForEachState, ptr %8, i32 0, i32 1
  %54 = load i32, ptr %53, align 8
  %55 = add i32 %54, 1
  store i32 %55, ptr %53, align 8
  br label %18, !llvm.loop !35

56:                                               ; preds = %43
  %57 = load ptr, ptr %6, align 8
  %58 = call ptr @MemoryContextSwitchTo(ptr noundef %57)
  %59 = load ptr, ptr %5, align 8
  call void @llvm.lifetime.end.p0(i64 8, ptr %7) #8
  call void @llvm.lifetime.end.p0(i64 8, ptr %6) #8
  call void @llvm.lifetime.end.p0(i64 8, ptr %5) #8
  ret ptr %59
}