; Function Attrs: nounwind uwtable
define dso_local ptr @ExecPrepareExprList(ptr noundef readonly captures(address_is_null) %0, ptr noundef readonly captures(none) %1) local_unnamed_addr #0 {
  %3 = getelementptr inbounds nuw i8, ptr %1, i64 192
  %4 = load ptr, ptr %3, align 8
  %5 = load ptr, ptr @CurrentMemoryContext, align 8
  store ptr %4, ptr @CurrentMemoryContext, align 8
  %6 = getelementptr inbounds nuw i8, ptr %0, i64 4
  %.not = icmp eq ptr %0, null
  br i1 %.not, label %._crit_edge, label %.lr.ph

.lr.ph:                                           ; preds = %2
  %7 = getelementptr inbounds nuw i8, ptr %0, i64 16
  %8 = load i32, ptr %6, align 4
  %9 = icmp sgt i32 %8, 0
  br i1 %9, label %.lr.ph24, label %._crit_edge

._crit_edge:                                      ; preds = %.lr.ph24, %.lr.ph, %2
  %.0.lcssa = phi ptr [ null, %2 ], [ null, %.lr.ph ], [ %17, %.lr.ph24 ]
  store ptr %5, ptr @CurrentMemoryContext, align 8
  ret ptr %.0.lcssa

.lr.ph24:                                         ; preds = %.lr.ph, %.lr.ph24
  %indvars.iv = phi i64 [ %indvars.iv.next, %.lr.ph24 ], [ 0, %.lr.ph ]
  %.01822 = phi ptr [ %17, %.lr.ph24 ], [ null, %.lr.ph ]
  %10 = load ptr, ptr %7, align 8
  %11 = getelementptr inbounds nuw %union.ListCell, ptr %10, i64 %indvars.iv
  %12 = load ptr, ptr %11, align 8
  %13 = load ptr, ptr %3, align 8
  %14 = load ptr, ptr @CurrentMemoryContext, align 8
  store ptr %13, ptr @CurrentMemoryContext, align 8
  %15 = tail call ptr @expression_planner(ptr noundef %12) #10
  %16 = tail call noundef ptr @ExecInitExpr(ptr noundef %15, ptr noundef null)
  store ptr %14, ptr @CurrentMemoryContext, align 8
  %17 = tail call ptr @lappend(ptr noundef %.01822, ptr noundef %16) #10
  %indvars.iv.next = add nuw nsw i64 %indvars.iv, 1
  %18 = load i32, ptr %6, align 4
  %19 = sext i32 %18 to i64
  %20 = icmp slt i64 %indvars.iv.next, %19
  br i1 %20, label %.lr.ph24, label %._crit_edge
}